target datalayout = "e-m:e-p270:32:32-p271:32:32-p272:64:64-i64:64-i128:128-f80:128-n8:16:32:64-S128"
target triple = "x86_64-pc-linux-gnu"

%struct.darktable_t = type { %struct.dt_codepath_t, i32, i32, ptr, ptr, ptr, ptr, ptr, ptr, ptr, ptr, ptr, ptr, ptr, ptr, ptr, ptr, ptr, ptr, ptr, ptr, ptr, ptr, ptr, ptr, ptr, ptr, ptr, ptr, ptr, [64 x %struct.dt_pthread_mutex_t], %struct.dt_pthread_mutex_t, %struct.dt_pthread_mutex_t, %struct.dt_pthread_mutex_t, %struct.dt_pthread_mutex_t, %struct.dt_pthread_mutex_t, ptr, ptr, ptr, ptr, ptr, ptr, ptr, ptr, ptr, ptr, ptr, ptr, ptr, %struct.dt_lua_state_t, ptr, double, ptr, i32, [47 x i32], i32, i32, ptr, ptr, %struct.dt_sys_resources_t, %struct.dt_backthumb_t, %struct.dt_gimp_t }
%struct.dt_codepath_t = type { i8, [3 x i8] }
%struct.dt_pthread_mutex_t = type { %union.pthread_mutex_t }
%union.pthread_mutex_t = type { %struct.__pthread_mutex_s }
%struct.__pthread_mutex_s = type { i32, i32, i32, i32, i32, i16, i16, %struct.__pthread_internal_list }
%struct.__pthread_internal_list = type { ptr, ptr }
%struct.dt_lua_state_t = type { i32 }
%struct.dt_sys_resources_t = type { i64, i64, ptr, ptr, i32 }
%struct.dt_backthumb_t = type { double, double, i32, i32, i32, i32 }
%struct.dt_gimp_t = type { i32, ptr, ptr, i32, i32 }
%struct.dt_action_def_t = type { ptr, ptr, ptr, ptr, i32 }
%struct._GdkRGBA = type { double, double, double, double }
%struct.dt_action_element_def_t = type { ptr, ptr }
%struct.dt_gui_gtk_t = type { ptr, %struct.dt_gui_widgets_t, %struct.dt_gui_scrollbars_t, i32, ptr, i32, [39 x %struct._GdkRGBA], i32, i32, i32, i32, i32, double, double, double, double, ptr, double, double, double, double, i32, i32, [4096 x i8], i32, i32, i32, %struct.dt_pthread_mutex_t }
%struct.dt_gui_widgets_t = type { ptr, ptr, ptr, ptr, i32, i32, i32 }
%struct.dt_gui_scrollbars_t = type { ptr, ptr, i32 }

@darktable = external global %struct.darktable_t, align 8
@.str.33 = private unnamed_addr constant [20 x i8] c"motion-notify-event\00", align 1
@.str.36 = private unnamed_addr constant [19 x i8] c"button-press-event\00", align 1
@.str.38 = private unnamed_addr constant [13 x i8] c"scroll-event\00", align 1
@dt_action_effect_tabs = global [5 x ptr] [ptr @.str.168, ptr @.str.169, ptr @.str.170, ptr @.str.171, ptr null], align 16
@_current_notebook = internal global ptr null, align 8
@_current_action_def = internal global ptr null, align 8
@.str.173 = private unnamed_addr constant [11 x i8] c"tab-expand\00", align 1
@.str.174 = private unnamed_addr constant [9 x i8] c"tab-fill\00", align 1
@.str.175 = private unnamed_addr constant [14 x i8] c"size-allocate\00", align 1

; Function Attrs: nounwind uwtable
define ptr @dt_ui_notebook_page(ptr noundef %0, ptr noundef %1, ptr noundef %2) #0 {
  %4 = alloca ptr, align 8
  %5 = alloca ptr, align 8
  %6 = alloca ptr, align 8
  %7 = alloca ptr, align 8
  %8 = alloca ptr, align 8
  %9 = alloca i32, align 4
  %10 = alloca ptr, align 8
  store ptr %0, ptr %4, align 8, !tbaa !287
  store ptr %1, ptr %5, align 8, !tbaa !11
  store ptr %2, ptr %6, align 8, !tbaa !11
  %11 = load ptr, ptr %4, align 8, !tbaa !287
  %12 = load ptr, ptr @_current_notebook, align 8, !tbaa !287
  %13 = icmp ne ptr %11, %12
  br i1 %13, label %14, label %15

14:                                               ; preds = %3
  store ptr null, ptr @_current_notebook, align 8, !tbaa !287
  store ptr null, ptr @_current_action_def, align 8, !tbaa !285
  br label %15

15:                                               ; preds = %14, %3
  call void @llvm.lifetime.start.p0(i64 8, ptr %7) #15
  %16 = load ptr, ptr %5, align 8, !tbaa !11
  %17 = call ptr @dcgettext(ptr noundef null, ptr noundef %16, i32 noundef 5) #15
  %18 = call ptr @gtk_label_new(ptr noundef %17)
  store ptr %18, ptr %7, align 8, !tbaa !6
  call void @llvm.lifetime.start.p0(i64 8, ptr %8) #15
  %19 = call ptr @gtk_box_new(i32 noundef 1, i32 noundef 0)
  store ptr %19, ptr %8, align 8, !tbaa !6
  %20 = load ptr, ptr %5, align 8, !tbaa !11
  %21 = call i64 @strlen(ptr noundef %20) #18
  %22 = icmp ugt i64 %21, 2
  br i1 %22, label %23, label %27

23:                                               ; preds = %15
  %24 = load ptr, ptr %7, align 8, !tbaa !6
  %25 = call i64 @gtk_label_get_type() #16
  %26 = call ptr @g_type_check_instance_cast(ptr noundef %24, i64 noundef %25)
  call void @gtk_label_set_ellipsize(ptr noundef %26, i32 noundef 3)
  br label %27

27:                                               ; preds = %23, %15
  %28 = load ptr, ptr %7, align 8, !tbaa !6
  %29 = load ptr, ptr %6, align 8, !tbaa !11
  %30 = icmp ne ptr %29, null
  br i1 %30, label %31, label %33

31:                                               ; preds = %27
  %32 = load ptr, ptr %6, align 8, !tbaa !11
  br label %36

33:                                               ; preds = %27
  %34 = load ptr, ptr %5, align 8, !tbaa !11
  %35 = call ptr @dcgettext(ptr noundef null, ptr noundef %34, i32 noundef 5) #15
  br label %36

36:                                               ; preds = %33, %31
  %37 = phi ptr [ %32, %31 ], [ %35, %33 ]
  call void @gtk_widget_set_tooltip_text(ptr noundef %28, ptr noundef %37)
  %38 = load ptr, ptr %4, align 8, !tbaa !287
  %39 = call i64 @gtk_widget_get_type() #16
  %40 = call ptr @g_type_check_instance_cast(ptr noundef %38, i64 noundef %39)
  call void @gtk_widget_set_has_tooltip(ptr noundef %40, i32 noundef 0)
  call void @llvm.lifetime.start.p0(i64 4, ptr %9) #15
  %41 = load ptr, ptr %4, align 8, !tbaa !287
  %42 = load ptr, ptr %8, align 8, !tbaa !6
  %43 = load ptr, ptr %7, align 8, !tbaa !6
  %44 = call i32 @gtk_notebook_append_page(ptr noundef %41, ptr noundef %42, ptr noundef %43)
  store i32 %44, ptr %9, align 4, !tbaa !17
  %45 = load ptr, ptr %4, align 8, !tbaa !287
  %46 = call i64 @gtk_container_get_type() #16
  %47 = call ptr @g_type_check_instance_cast(ptr noundef %45, i64 noundef %46)
  %48 = load ptr, ptr %8, align 8, !tbaa !6
  call void (ptr, ptr, ptr, ...) @gtk_container_child_set(ptr noundef %47, ptr noundef %48, ptr noundef @.str.173, i32 noundef 1, ptr noundef @.str.174, i32 noundef 1, ptr noundef null)
  %49 = load i32, ptr %9, align 4, !tbaa !17
  %50 = icmp eq i32 %49, 1
  br i1 %50, label %51, label %75

51:                                               ; preds = %36
  %52 = load ptr, ptr %4, align 8, !tbaa !287
  %53 = call ptr @g_type_check_instance_cast(ptr noundef %52, i64 noundef 80)
  %54 = call i64 @g_signal_handler_find(ptr noundef %53, i32 noundef 8, i32 noundef 0, i32 noundef 0, ptr noundef null, ptr noundef @_notebook_size_callback, ptr noundef null)
  %55 = icmp ne i64 %54, 0
  br i1 %55, label %75, label %56

56:                                               ; preds = %51
  %57 = load ptr, ptr %4, align 8, !tbaa !287
  %58 = call ptr @g_type_check_instance_cast(ptr noundef %57, i64 noundef 80)
  %59 = call i64 @g_signal_connect_data(ptr noundef %58, ptr noundef @.str.175, ptr noundef @_notebook_size_callback, ptr noundef null, ptr noundef null, i32 noundef 0)
  %60 = load ptr, ptr %4, align 8, !tbaa !287
  %61 = call ptr @g_type_check_instance_cast(ptr noundef %60, i64 noundef 80)
  %62 = call i64 @g_signal_connect_data(ptr noundef %61, ptr noundef @.str.33, ptr noundef @_notebook_motion_notify_callback, ptr noundef null, ptr noundef null, i32 noundef 0)
  %63 = load ptr, ptr %4, align 8, !tbaa !287
  %64 = call ptr @g_type_check_instance_cast(ptr noundef %63, i64 noundef 80)
  %65 = call i64 @g_signal_connect_data(ptr noundef %64, ptr noundef @.str.38, ptr noundef @_notebook_scroll_callback, ptr noundef null, ptr noundef null, i32 noundef 0)
  %66 = load ptr, ptr %4, align 8, !tbaa !287
  %67 = call ptr @g_type_check_instance_cast(ptr noundef %66, i64 noundef 80)
  %68 = call i64 @g_signal_connect_data(ptr noundef %67, ptr noundef @.str.36, ptr noundef @_notebook_button_press_callback, ptr noundef null, ptr noundef null, i32 noundef 0)
  %69 = load ptr, ptr %4, align 8, !tbaa !287
  %70 = call i64 @gtk_widget_get_type() #16
  %71 = call ptr @g_type_check_instance_cast(ptr noundef %69, i64 noundef %70)
  %72 = load ptr, ptr getelementptr inbounds nuw (%struct.darktable_t, ptr @darktable, i32 0, i32 14), align 8, !tbaa !24
  %73 = getelementptr inbounds nuw %struct.dt_gui_gtk_t, ptr %72, i32 0, i32 24
  %74 = load i32, ptr %73, align 8, !tbaa !127
  call void @gtk_widget_add_events(ptr noundef %71, i32 noundef %74)
  br label %75

75:                                               ; preds = %56, %51, %36
  %76 = load ptr, ptr @_current_action_def, align 8, !tbaa !285
  %77 = icmp ne ptr %76, null
  br i1 %77, label %78, label %119

78:                                               ; preds = %75
  call void @llvm.lifetime.start.p0(i64 8, ptr %10) #15
  %79 = load i32, ptr %9, align 4, !tbaa !17
  %80 = add nsw i32 %79, 2
  %81 = sext i32 %80 to i64
  %82 = call noalias ptr @calloc(i64 noundef %81, i64 noundef 16) #19
  store ptr %82, ptr %10, align 8, !tbaa !294
  %83 = load ptr, ptr @_current_action_def, align 8, !tbaa !285
  %84 = getelementptr inbounds nuw %struct.dt_action_def_t, ptr %83, i32 0, i32 2
  %85 = load ptr, ptr %84, align 8, !tbaa !295
  %86 = icmp ne ptr %85, null
  br i1 %86, label %87, label %95

87:                                               ; preds = %78
  %88 = load ptr, ptr %10, align 8, !tbaa !294
  %89 = load ptr, ptr @_current_action_def, align 8, !tbaa !285
  %90 = getelementptr inbounds nuw %struct.dt_action_def_t, ptr %89, i32 0, i32 2
  %91 = load ptr, ptr %90, align 8, !tbaa !295
  %92 = load i32, ptr %9, align 4, !tbaa !17
  %93 = sext i32 %92 to i64
  %94 = mul i64 %93, 16
  call void @llvm.memcpy.p0.p0.i64(ptr align 8 %88, ptr align 8 %91, i64 %94, i1 false)
  br label %95

95:                                               ; preds = %87, %78
  %96 = load ptr, ptr %5, align 8, !tbaa !11
  %97 = load ptr, ptr %10, align 8, !tbaa !294
  %98 = load i32, ptr %9, align 4, !tbaa !17
  %99 = sext i32 %98 to i64
  %100 = getelementptr inbounds %struct.dt_action_element_def_t, ptr %97, i64 %99
  %101 = getelementptr inbounds nuw %struct.dt_action_element_def_t, ptr %100, i32 0, i32 0
  store ptr %96, ptr %101, align 8, !tbaa !296
  %102 = load ptr, ptr %10, align 8, !tbaa !294
  %103 = load i32, ptr %9, align 4, !tbaa !17
  %104 = sext i32 %103 to i64
  %105 = getelementptr inbounds %struct.dt_action_element_def_t, ptr %102, i64 %104
  %106 = getelementptr inbounds nuw %struct.dt_action_element_def_t, ptr %105, i32 0, i32 1
  store ptr @dt_action_effect_tabs, ptr %106, align 8, !tbaa !299
  %107 = load ptr, ptr @_current_action_def, align 8, !tbaa !285
  %108 = getelementptr inbounds nuw %struct.dt_action_def_t, ptr %107, i32 0, i32 2
  %109 = load ptr, ptr %108, align 8, !tbaa !295
  %110 = icmp ne ptr %109, null
  br i1 %110, label %111, label %115

111:                                              ; preds = %95
  %112 = load ptr, ptr @_current_action_def, align 8, !tbaa !285
  %113 = getelementptr inbounds nuw %struct.dt_action_def_t, ptr %112, i32 0, i32 2
  %114 = load ptr, ptr %113, align 8, !tbaa !295
  call void @free(ptr noundef %114) #15
  br label %115

115:                                              ; preds = %111, %95
  %116 = load ptr, ptr %10, align 8, !tbaa !294
  %117 = load ptr, ptr @_current_action_def, align 8, !tbaa !285
  %118 = getelementptr inbounds nuw %struct.dt_action_def_t, ptr %117, i32 0, i32 2
  store ptr %116, ptr %118, align 8, !tbaa !295
  call void @llvm.lifetime.end.p0(i64 8, ptr %10) #15
  br label %119

119:                                              ; preds = %115, %75
  %120 = load ptr, ptr %8, align 8, !tbaa !6
  call void @llvm.lifetime.end.p0(i64 4, ptr %9) #15
  call void @llvm.lifetime.end.p0(i64 8, ptr %8) #15
  call void @llvm.lifetime.end.p0(i64 8, ptr %7) #15
  ret ptr %120
}