; Function Attrs: nounwind uwtable
define ptr @dt_ui_notebook_page(ptr noundef %0, ptr noundef %1, ptr noundef %2) local_unnamed_addr #0 {
  %4 = load ptr, ptr @_current_notebook, align 8, !tbaa !219
  %.not = icmp eq ptr %0, %4
  br i1 %.not, label %6, label %5

5:                                                ; preds = %3
  store ptr null, ptr @_current_notebook, align 8, !tbaa !219
  store ptr null, ptr @_current_action_def, align 8, !tbaa !225
  br label %6

6:                                                ; preds = %5, %3
  %7 = tail call ptr @dcgettext(ptr noundef null, ptr noundef %1, i32 noundef 5) #18
  %8 = tail call ptr @gtk_label_new(ptr noundef %7) #18
  %9 = tail call ptr @gtk_box_new(i32 noundef 1, i32 noundef 0) #18
  %10 = tail call i64 @strlen(ptr noundef nonnull dereferenceable(1) %1) #20
  %11 = icmp ugt i64 %10, 2
  br i1 %11, label %12, label %15

12:                                               ; preds = %6
  %13 = tail call i64 @gtk_label_get_type() #19
  %14 = tail call ptr @g_type_check_instance_cast(ptr noundef %8, i64 noundef %13) #18
  tail call void @gtk_label_set_ellipsize(ptr noundef %14, i32 noundef 3) #18
  br label %15

15:                                               ; preds = %12, %6
  %.not32 = icmp eq ptr %2, null
  br i1 %.not32, label %16, label %18

16:                                               ; preds = %15
  %17 = tail call ptr @dcgettext(ptr noundef null, ptr noundef nonnull %1, i32 noundef 5) #18
  br label %18

18:                                               ; preds = %15, %16
  %19 = phi ptr [ %17, %16 ], [ %2, %15 ]
  tail call void @gtk_widget_set_tooltip_text(ptr noundef %8, ptr noundef %19) #18
  %20 = tail call i64 @gtk_widget_get_type() #19
  %21 = tail call ptr @g_type_check_instance_cast(ptr noundef %0, i64 noundef %20) #18
  tail call void @gtk_widget_set_has_tooltip(ptr noundef %21, i32 noundef 0) #18
  %22 = tail call i32 @gtk_notebook_append_page(ptr noundef %0, ptr noundef %9, ptr noundef %8) #18
  %23 = tail call i64 @gtk_container_get_type() #19
  %24 = tail call ptr @g_type_check_instance_cast(ptr noundef %0, i64 noundef %23) #18
  tail call void (ptr, ptr, ptr, ...) @gtk_container_child_set(ptr noundef %24, ptr noundef %9, ptr noundef nonnull @.str.173, i32 noundef 1, ptr noundef nonnull @.str.174, i32 noundef 1, ptr noundef null) #18
  %25 = icmp eq i32 %22, 1
  br i1 %25, label %26, label %42

26:                                               ; preds = %18
  %27 = tail call ptr @g_type_check_instance_cast(ptr noundef %0, i64 noundef 80) #18
  %28 = tail call i64 @g_signal_handler_find(ptr noundef %27, i32 noundef 8, i32 noundef 0, i32 noundef 0, ptr noundef null, ptr noundef nonnull @_notebook_size_callback, ptr noundef null) #18
  %.not33 = icmp eq i64 %28, 0
  br i1 %.not33, label %29, label %42

29:                                               ; preds = %26
  %30 = tail call ptr @g_type_check_instance_cast(ptr noundef %0, i64 noundef 80) #18
  %31 = tail call i64 @g_signal_connect_data(ptr noundef %30, ptr noundef nonnull @.str.175, ptr noundef nonnull @_notebook_size_callback, ptr noundef null, ptr noundef null, i32 noundef 0) #18
  %32 = tail call ptr @g_type_check_instance_cast(ptr noundef %0, i64 noundef 80) #18
  %33 = tail call i64 @g_signal_connect_data(ptr noundef %32, ptr noundef nonnull @.str.33, ptr noundef nonnull @_notebook_motion_notify_callback, ptr noundef null, ptr noundef null, i32 noundef 0) #18
  %34 = tail call ptr @g_type_check_instance_cast(ptr noundef %0, i64 noundef 80) #18
  %35 = tail call i64 @g_signal_connect_data(ptr noundef %34, ptr noundef nonnull @.str.38, ptr noundef nonnull @_notebook_scroll_callback, ptr noundef null, ptr noundef null, i32 noundef 0) #18
  %36 = tail call ptr @g_type_check_instance_cast(ptr noundef %0, i64 noundef 80) #18
  %37 = tail call i64 @g_signal_connect_data(ptr noundef %36, ptr noundef nonnull @.str.36, ptr noundef nonnull @_notebook_button_press_callback, ptr noundef null, ptr noundef null, i32 noundef 0) #18
  %38 = tail call ptr @g_type_check_instance_cast(ptr noundef %0, i64 noundef %20) #18
  %39 = load ptr, ptr getelementptr inbounds nuw (i8, ptr @darktable, i64 104), align 8, !tbaa !15
  %40 = getelementptr inbounds nuw i8, ptr %39, i64 5552
  %41 = load i32, ptr %40, align 8, !tbaa !100
  tail call void @gtk_widget_add_events(ptr noundef %38, i32 noundef %41) #18
  br label %42

42:                                               ; preds = %29, %26, %18
  %43 = load ptr, ptr @_current_action_def, align 8, !tbaa !225
  %.not34 = icmp eq ptr %43, null
  br i1 %.not34, label %58, label %44

44:                                               ; preds = %42
  %45 = add nsw i32 %22, 2
  %46 = sext i32 %45 to i64
  %47 = tail call noalias ptr @calloc(i64 noundef %46, i64 noundef 16) #22
  %48 = getelementptr inbounds nuw i8, ptr %43, i64 16
  %49 = load ptr, ptr %48, align 8, !tbaa !228
  %.not35 = icmp eq ptr %49, null
  %50 = sext i32 %22 to i64
  br i1 %.not35, label %.thread, label %53

.thread:                                          ; preds = %44
  %51 = getelementptr inbounds %struct.dt_action_element_def_t, ptr %47, i64 %50
  store ptr %1, ptr %51, align 8, !tbaa !229
  %52 = getelementptr inbounds nuw i8, ptr %51, i64 8
  store ptr @dt_action_effect_tabs, ptr %52, align 8, !tbaa !232
  br label %57

53:                                               ; preds = %44
  %54 = shl nsw i64 %50, 4
  tail call void @llvm.memcpy.p0.p0.i64(ptr align 8 %47, ptr nonnull align 8 %49, i64 %54, i1 false)
  %55 = getelementptr inbounds %struct.dt_action_element_def_t, ptr %47, i64 %50
  store ptr %1, ptr %55, align 8, !tbaa !229
  %56 = getelementptr inbounds nuw i8, ptr %55, i64 8
  store ptr @dt_action_effect_tabs, ptr %56, align 8, !tbaa !232
  tail call void @free(ptr noundef nonnull %49) #18
  br label %57

57:                                               ; preds = %.thread, %53
  store ptr %47, ptr %48, align 8, !tbaa !228
  br label %58

58:                                               ; preds = %57, %42
  ret ptr %9
}